target datalayout = "e-m:e-p270:32:32-p271:32:32-p272:64:64-i64:64-i128:128-f80:128-n8:16:32:64-S128"
target triple = "x86_64-pc-linux-gnu"

%"class.clang::MangleContext" = type { ptr, ptr, ptr, i32, i8, [3 x i8], %"class.llvm::DenseMap", %"class.llvm::DenseMap", %"class.llvm::DenseMap.0", %"class.llvm::DenseMap.3" }
%"class.llvm::DenseMap" = type <{ ptr, i32, i32, i32, [4 x i8] }>
%"class.llvm::DenseMap.0" = type <{ ptr, i32, i32, i32, [4 x i8] }>
%"class.llvm::DenseMap.3" = type <{ ptr, i32, i32, i32, [4 x i8] }>
%"class.(anonymous namespace)::CXXNameMangler" = type { ptr, ptr, i8, i8, i8, ptr, i32, i32, i32, %"class.(anonymous namespace)::CXXNameMangler::FunctionTypeDepthState", ptr, %"class.(anonymous namespace)::CXXNameMangler::AbiTagState", %"class.llvm::DenseMap.513", %"class.llvm::DenseMap.516" }
%"class.(anonymous namespace)::CXXNameMangler::FunctionTypeDepthState" = type { i32 }
%"class.(anonymous namespace)::CXXNameMangler::AbiTagState" = type { %"class.llvm::SmallVector.508", %"class.llvm::SmallVector.508", ptr, ptr }
%"class.llvm::SmallVector.508" = type { %"class.llvm::SmallVectorImpl.509", %"struct.llvm::SmallVectorStorage.512" }
%"class.llvm::SmallVectorImpl.509" = type { %"class.llvm::SmallVectorTemplateBase.510" }
%"class.llvm::SmallVectorTemplateBase.510" = type { %"class.llvm::SmallVectorTemplateCommon.511" }
%"class.llvm::SmallVectorTemplateCommon.511" = type { %"class.llvm::SmallVectorBase" }
%"class.llvm::SmallVectorBase" = type { ptr, i32, i32 }
%"struct.llvm::SmallVectorStorage.512" = type { [64 x i8] }
%"class.llvm::DenseMap.513" = type <{ ptr, i32, i32, i32, [4 x i8] }>
%"class.llvm::DenseMap.516" = type <{ ptr, i32, i32, i32, [4 x i8] }>
%"struct.llvm::detail::PunnedPointer.398" = type { [8 x i8] }
%"class.clang::TemplateName" = type { %"class.llvm::PointerUnion.550" }
%"class.llvm::PointerUnion.550" = type { %"class.llvm::pointer_union_detail::PointerUnionMembers.551" }
%"class.llvm::pointer_union_detail::PointerUnionMembers.551" = type { %"class.llvm::pointer_union_detail::PointerUnionMembers.552" }
%"class.llvm::pointer_union_detail::PointerUnionMembers.552" = type { %"class.llvm::pointer_union_detail::PointerUnionMembers.553" }
%"class.llvm::pointer_union_detail::PointerUnionMembers.553" = type { %"class.llvm::pointer_union_detail::PointerUnionMembers.554" }
%"class.llvm::pointer_union_detail::PointerUnionMembers.554" = type { %"class.llvm::pointer_union_detail::PointerUnionMembers.555" }
%"class.llvm::pointer_union_detail::PointerUnionMembers.555" = type { %"class.llvm::PointerIntPair.556" }
%"class.llvm::PointerIntPair.556" = type { %"struct.llvm::detail::PunnedPointer.398" }

; Function Attrs: mustprogress nounwind uwtable
define linkonce_odr hidden noundef i64 @_ZNK4llvm6detail13PunnedPointerIPvE5asIntEv(ptr noundef nonnull align 8 dereferenceable(8) %0) #0 comdat align 2 {
  %2 = alloca ptr, align 8
  %3 = alloca i64, align 8
  store ptr %0, ptr %2, align 8
  %4 = load ptr, ptr %2, align 8
  store i64 0, ptr %3, align 8
  %5 = getelementptr inbounds nuw %"struct.llvm::detail::PunnedPointer.398", ptr %4, i32 0, i32 0
  %6 = getelementptr inbounds [8 x i8], ptr %5, i64 0, i64 0
  call void @llvm.memcpy.p0.p0.i64(ptr align 8 %3, ptr align 8 %6, i64 8, i1 false)
  %7 = load i64, ptr %3, align 8
  ret i64 %7
}

; Function Attrs: mustprogress nounwind uwtable
define linkonce_odr hidden noundef ptr @_ZN4llvm16cast_convert_valIN5clang9NamedDeclEPKNS1_4DeclES5_E4doitES5_(ptr noundef %0) #0 comdat align 2 {
  %2 = alloca ptr, align 8
  store ptr %0, ptr %2, align 8
  %3 = load ptr, ptr %2, align 8
  ret ptr %3
}

; Function Attrs: mustprogress nounwind uwtable
define linkonce_odr hidden noundef ptr @_ZNK4llvm14PointerIntPairIPvLj2EiNS_20pointer_union_detail22PointerUnionUIntTraitsIJPN5clang4DeclEPNS4_27UncommonTemplateNameStorageEPNS4_21QualifiedTemplateNameEPNS4_21DependentTemplateNameEEEENS_18PointerIntPairInfoIS1_Lj2ESD_EEE14getOpaqueValueEv(ptr noundef nonnull align 8 dereferenceable(8) %0) #0 comdat align 2 {
  %2 = alloca ptr, align 8
  store ptr %0, ptr %2, align 8
  %3 = load ptr, ptr %2, align 8
  %4 = getelementptr inbounds nuw %"class.llvm::PointerIntPair.556", ptr %3, i32 0, i32 0
  %5 = call noundef i64 @_ZNK4llvm6detail13PunnedPointerIPvE5asIntEv(ptr noundef nonnull align 8 dereferenceable(8) %4)
  %6 = inttoptr i64 %5 to ptr
  ret ptr %6
}

; Function Attrs: mustprogress nounwind uwtable
define linkonce_odr hidden noundef ptr @_ZN4llvm8CastInfoIN5clang9NamedDeclEPKNS1_4DeclEvE6doCastERKS5_(ptr noundef nonnull align 8 dereferenceable(8) %0) #0 comdat align 2 {
  %2 = alloca ptr, align 8
  store ptr %0, ptr %2, align 8
  %3 = load ptr, ptr %2, align 8
  %4 = load ptr, ptr %3, align 8
  %5 = call noundef ptr @_ZN4llvm16cast_convert_valIN5clang9NamedDeclEPKNS1_4DeclES5_E4doitES5_(ptr noundef %4)
  ret ptr %5
}

; Function Attrs: mustprogress nounwind uwtable
define linkonce_odr hidden noundef ptr @_ZNK4llvm12PointerUnionIJPN5clang4DeclEPNS1_27UncommonTemplateNameStorageEPNS1_21QualifiedTemplateNameEPNS1_21DependentTemplateNameEEE14getOpaqueValueEv(ptr noundef nonnull align 8 dereferenceable(8) %0) #0 comdat align 2 {
  %2 = alloca ptr, align 8
  store ptr %0, ptr %2, align 8
  %3 = load ptr, ptr %2, align 8
  %4 = getelementptr inbounds nuw %"class.llvm::pointer_union_detail::PointerUnionMembers.555", ptr %3, i32 0, i32 0
  %5 = call noundef ptr @_ZNK4llvm14PointerIntPairIPvLj2EiNS_20pointer_union_detail22PointerUnionUIntTraitsIJPN5clang4DeclEPNS4_27UncommonTemplateNameStorageEPNS4_21QualifiedTemplateNameEPNS4_21DependentTemplateNameEEEENS_18PointerIntPairInfoIS1_Lj2ESD_EEE14getOpaqueValueEv(ptr noundef nonnull align 8 dereferenceable(8) %4)
  ret ptr %5
}

; Function Attrs: mustprogress nounwind uwtable
define linkonce_odr hidden noundef ptr @_ZN4llvm4castIN5clang9NamedDeclEKNS1_4DeclEEEDcPT0_(ptr noundef %0) #0 comdat {
  %2 = alloca ptr, align 8
  store ptr %0, ptr %2, align 8
  %3 = call noundef ptr @_ZN4llvm8CastInfoIN5clang9NamedDeclEPKNS1_4DeclEvE6doCastERKS5_(ptr noundef nonnull align 8 dereferenceable(8) %2)
  ret ptr %3
}

; Function Attrs: mustprogress nounwind uwtable
define linkonce_odr hidden noundef ptr @_ZNK5clang4Decl16getCanonicalDeclEv(ptr noundef nonnull align 8 dereferenceable(33) %0) #0 comdat align 2 {
  %2 = alloca ptr, align 8
  store ptr %0, ptr %2, align 8
  %3 = load ptr, ptr %2, align 8
  %4 = load ptr, ptr %3, align 8
  %5 = getelementptr inbounds ptr, ptr %4, i64 4
  %6 = load ptr, ptr %5, align 8
  %7 = call noundef ptr %6(ptr noundef nonnull align 8 dereferenceable(33) %3)
  ret ptr %7
}

; Function Attrs: mustprogress nounwind uwtable
define linkonce_odr hidden noundef ptr @_ZNK5clang12TemplateName16getAsVoidPointerEv(ptr noundef nonnull align 8 dereferenceable(8) %0) #0 comdat align 2 {
  %2 = alloca ptr, align 8
  store ptr %0, ptr %2, align 8
  %3 = load ptr, ptr %2, align 8
  %4 = getelementptr inbounds nuw %"class.clang::TemplateName", ptr %3, i32 0, i32 0
  %5 = call noundef ptr @_ZNK4llvm12PointerUnionIJPN5clang4DeclEPNS1_27UncommonTemplateNameStorageEPNS1_21QualifiedTemplateNameEPNS1_21DependentTemplateNameEEE14getOpaqueValueEv(ptr noundef nonnull align 8 dereferenceable(8) %4)
  ret ptr %5
}

; Function Attrs: mustprogress nounwind uwtable
define linkonce_odr hidden noundef nonnull align 8 dereferenceable(23096) ptr @_ZNK5clang13MangleContext13getASTContextEv(ptr noundef nonnull align 8 dereferenceable(128) %0) #0 comdat align 2 {
  %2 = alloca ptr, align 8
  store ptr %0, ptr %2, align 8
  %3 = load ptr, ptr %2, align 8
  %4 = getelementptr inbounds nuw %"class.clang::MangleContext", ptr %3, i32 0, i32 1
  %5 = load ptr, ptr %4, align 8
  ret ptr %5
}

; Function Attrs: mustprogress nounwind uwtable
define internal noundef zeroext i1 @_ZN12_GLOBAL__N_114CXXNameMangler18mangleSubstitutionEPKN5clang9NamedDeclE(ptr noundef nonnull align 8 dereferenceable(280) %0, ptr noundef %1) #0 align 2 {
  %3 = alloca i1, align 1
  %4 = alloca ptr, align 8
  %5 = alloca ptr, align 8
  store ptr %0, ptr %4, align 8
  store ptr %1, ptr %5, align 8
  %6 = load ptr, ptr %4, align 8
  %7 = load ptr, ptr %5, align 8
  %8 = call noundef zeroext i1 @_ZN12_GLOBAL__N_114CXXNameMangler26mangleStandardSubstitutionEPKN5clang9NamedDeclE(ptr noundef nonnull align 8 dereferenceable(280) %6, ptr noundef %7)
  br i1 %8, label %9, label %10

9:                                                ; preds = %2
  store i1 true, ptr %3, align 1
  br label %17

10:                                               ; preds = %2
  %11 = load ptr, ptr %5, align 8
  %12 = call noundef ptr @_ZNK5clang4Decl16getCanonicalDeclEv(ptr noundef nonnull align 8 dereferenceable(33) %11)
  %13 = call noundef ptr @_ZN4llvm4castIN5clang9NamedDeclEKNS1_4DeclEEEDcPT0_(ptr noundef %12)
  store ptr %13, ptr %5, align 8
  %14 = load ptr, ptr %5, align 8
  %15 = ptrtoint ptr %14 to i64
  %16 = call noundef zeroext i1 @_ZN12_GLOBAL__N_114CXXNameMangler18mangleSubstitutionEm(ptr noundef nonnull align 8 dereferenceable(280) %6, i64 noundef %15)
  store i1 %16, ptr %3, align 1
  br label %17

17:                                               ; preds = %10, %9
  %18 = load i1, ptr %3, align 1
  ret i1 %18
}

; Function Attrs: mustprogress nounwind uwtable
define internal noundef zeroext i1 @_ZN12_GLOBAL__N_114CXXNameMangler18mangleSubstitutionEN5clang12TemplateNameE(ptr noundef nonnull align 8 dereferenceable(280) %0, i64 %1) #0 align 2 {
  %3 = alloca i1, align 1
  %4 = alloca %"class.clang::TemplateName", align 8
  %5 = alloca ptr, align 8
  %6 = alloca ptr, align 8
  %7 = alloca %"class.clang::TemplateName", align 8
  %8 = getelementptr inbounds nuw %"class.clang::TemplateName", ptr %4, i32 0, i32 0
  %9 = getelementptr inbounds nuw %"class.llvm::PointerUnion.550", ptr %8, i32 0, i32 0
  %10 = getelementptr inbounds nuw %"class.llvm::pointer_union_detail::PointerUnionMembers.551", ptr %9, i32 0, i32 0
  %11 = getelementptr inbounds nuw %"class.llvm::pointer_union_detail::PointerUnionMembers.552", ptr %10, i32 0, i32 0
  %12 = getelementptr inbounds nuw %"class.llvm::pointer_union_detail::PointerUnionMembers.553", ptr %11, i32 0, i32 0
  %13 = getelementptr inbounds nuw %"class.llvm::pointer_union_detail::PointerUnionMembers.554", ptr %12, i32 0, i32 0
  %14 = getelementptr inbounds nuw %"class.llvm::pointer_union_detail::PointerUnionMembers.555", ptr %13, i32 0, i32 0
  %15 = getelementptr inbounds nuw %"class.llvm::PointerIntPair.556", ptr %14, i32 0, i32 0
  %16 = getelementptr inbounds nuw %"struct.llvm::detail::PunnedPointer.398", ptr %15, i32 0, i32 0
  store i64 %1, ptr %16, align 8
  store ptr %0, ptr %5, align 8
  %17 = load ptr, ptr %5, align 8
  %18 = call noundef ptr @_ZNK5clang12TemplateName17getAsTemplateDeclEv(ptr noundef nonnull align 8 dereferenceable(8) %4)
  store ptr %18, ptr %6, align 8
  %19 = load ptr, ptr %6, align 8
  %20 = icmp ne ptr %19, null
  br i1 %20, label %21, label %24

21:                                               ; preds = %2
  %22 = load ptr, ptr %6, align 8
  %23 = call noundef zeroext i1 @_ZN12_GLOBAL__N_114CXXNameMangler18mangleSubstitutionEPKN5clang9NamedDeclE(ptr noundef nonnull align 8 dereferenceable(280) %17, ptr noundef %22)
  store i1 %23, ptr %3, align 1
  br label %41

24:                                               ; preds = %2
  %25 = getelementptr inbounds nuw %"class.(anonymous namespace)::CXXNameMangler", ptr %17, i32 0, i32 0
  %26 = load ptr, ptr %25, align 8
  %27 = call noundef nonnull align 8 dereferenceable(23096) ptr @_ZNK5clang13MangleContext13getASTContextEv(ptr noundef nonnull align 8 dereferenceable(128) %26)
  %28 = call i64 @_ZNK5clang10ASTContext24getCanonicalTemplateNameERKNS_12TemplateNameE(ptr noundef nonnull align 8 dereferenceable(23096) %27, ptr noundef nonnull align 8 dereferenceable(8) %4)
  %29 = getelementptr inbounds nuw %"class.clang::TemplateName", ptr %7, i32 0, i32 0
  %30 = getelementptr inbounds nuw %"class.llvm::PointerUnion.550", ptr %29, i32 0, i32 0
  %31 = getelementptr inbounds nuw %"class.llvm::pointer_union_detail::PointerUnionMembers.551", ptr %30, i32 0, i32 0
  %32 = getelementptr inbounds nuw %"class.llvm::pointer_union_detail::PointerUnionMembers.552", ptr %31, i32 0, i32 0
  %33 = getelementptr inbounds nuw %"class.llvm::pointer_union_detail::PointerUnionMembers.553", ptr %32, i32 0, i32 0
  %34 = getelementptr inbounds nuw %"class.llvm::pointer_union_detail::PointerUnionMembers.554", ptr %33, i32 0, i32 0
  %35 = getelementptr inbounds nuw %"class.llvm::pointer_union_detail::PointerUnionMembers.555", ptr %34, i32 0, i32 0
  %36 = getelementptr inbounds nuw %"class.llvm::PointerIntPair.556", ptr %35, i32 0, i32 0
  %37 = getelementptr inbounds nuw %"struct.llvm::detail::PunnedPointer.398", ptr %36, i32 0, i32 0
  store i64 %28, ptr %37, align 8
  call void @llvm.memcpy.p0.p0.i64(ptr align 8 %4, ptr align 8 %7, i64 8, i1 false)
  %38 = call noundef ptr @_ZNK5clang12TemplateName16getAsVoidPointerEv(ptr noundef nonnull align 8 dereferenceable(8) %4)
  %39 = ptrtoint ptr %38 to i64
  %40 = call noundef zeroext i1 @_ZN12_GLOBAL__N_114CXXNameMangler18mangleSubstitutionEm(ptr noundef nonnull align 8 dereferenceable(280) %17, i64 noundef %39)
  store i1 %40, ptr %3, align 1
  br label %41

41:                                               ; preds = %24, %21
  %42 = load i1, ptr %3, align 1
  ret i1 %42
}

; Function Attrs: mustprogress nounwind uwtable
define internal void @_ZN12_GLOBAL__N_114CXXNameMangler26mangleExistingSubstitutionEN5clang12TemplateNameE(ptr noundef nonnull align 8 dereferenceable(280) %0, i64 %1) #0 align 2 {
  %3 = alloca %"class.clang::TemplateName", align 8
  %4 = alloca ptr, align 8
  %5 = alloca i8, align 1
  %6 = alloca %"class.clang::TemplateName", align 8
  %7 = getelementptr inbounds nuw %"class.clang::TemplateName", ptr %3, i32 0, i32 0
  %8 = getelementptr inbounds nuw %"class.llvm::PointerUnion.550", ptr %7, i32 0, i32 0
  %9 = getelementptr inbounds nuw %"class.llvm::pointer_union_detail::PointerUnionMembers.551", ptr %8, i32 0, i32 0
  %10 = getelementptr inbounds nuw %"class.llvm::pointer_union_detail::PointerUnionMembers.552", ptr %9, i32 0, i32 0
  %11 = getelementptr inbounds nuw %"class.llvm::pointer_union_detail::PointerUnionMembers.553", ptr %10, i32 0, i32 0
  %12 = getelementptr inbounds nuw %"class.llvm::pointer_union_detail::PointerUnionMembers.554", ptr %11, i32 0, i32 0
  %13 = getelementptr inbounds nuw %"class.llvm::pointer_union_detail::PointerUnionMembers.555", ptr %12, i32 0, i32 0
  %14 = getelementptr inbounds nuw %"class.llvm::PointerIntPair.556", ptr %13, i32 0, i32 0
  %15 = getelementptr inbounds nuw %"struct.llvm::detail::PunnedPointer.398", ptr %14, i32 0, i32 0
  store i64 %1, ptr %15, align 8
  store ptr %0, ptr %4, align 8
  %16 = load ptr, ptr %4, align 8
  call void @llvm.memcpy.p0.p0.i64(ptr align 8 %6, ptr align 8 %3, i64 8, i1 false)
  %17 = getelementptr inbounds nuw %"class.clang::TemplateName", ptr %6, i32 0, i32 0
  %18 = getelementptr inbounds nuw %"class.llvm::PointerUnion.550", ptr %17, i32 0, i32 0
  %19 = getelementptr inbounds nuw %"class.llvm::pointer_union_detail::PointerUnionMembers.551", ptr %18, i32 0, i32 0
  %20 = getelementptr inbounds nuw %"class.llvm::pointer_union_detail::PointerUnionMembers.552", ptr %19, i32 0, i32 0
  %21 = getelementptr inbounds nuw %"class.llvm::pointer_union_detail::PointerUnionMembers.553", ptr %20, i32 0, i32 0
  %22 = getelementptr inbounds nuw %"class.llvm::pointer_union_detail::PointerUnionMembers.554", ptr %21, i32 0, i32 0
  %23 = getelementptr inbounds nuw %"class.llvm::pointer_union_detail::PointerUnionMembers.555", ptr %22, i32 0, i32 0
  %24 = getelementptr inbounds nuw %"class.llvm::PointerIntPair.556", ptr %23, i32 0, i32 0
  %25 = getelementptr inbounds nuw %"struct.llvm::detail::PunnedPointer.398", ptr %24, i32 0, i32 0
  %26 = load i64, ptr %25, align 8
  %27 = call noundef zeroext i1 @_ZN12_GLOBAL__N_114CXXNameMangler18mangleSubstitutionEN5clang12TemplateNameE(ptr noundef nonnull align 8 dereferenceable(280) %16, i64 %26)
  %28 = zext i1 %27 to i8
  store i8 %28, ptr %5, align 1
  ret void
}