; Function Attrs: mustprogress nounwind uwtable
define internal fastcc void @_ZN12_GLOBAL__N_114CXXNameMangler26mangleExistingSubstitutionEN5clang12TemplateNameE(ptr nocapture noundef nonnull readonly align 8 dereferenceable(280) %0, i64 %1) unnamed_addr #0 align 2 {
  %3 = alloca %"class.clang::TemplateName", align 8
  call void @llvm.lifetime.start.p0(i64 8, ptr nonnull %3)
  store i64 %1, ptr %3, align 8
  %4 = call noundef ptr @_ZNK5clang12TemplateName17getAsTemplateDeclEv(ptr noundef nonnull align 8 dereferenceable(8) %3) #24
  %.not.i = icmp eq ptr %4, null
  br i1 %.not.i, label %13, label %5

5:                                                ; preds = %2
  %6 = call fastcc noundef zeroext i1 @_ZN12_GLOBAL__N_114CXXNameMangler26mangleStandardSubstitutionEPKN5clang9NamedDeclE(ptr noundef nonnull readonly align 8 dereferenceable(280) %0, ptr noundef nonnull %4)
  br i1 %6, label %_ZN12_GLOBAL__N_114CXXNameMangler18mangleSubstitutionEN5clang12TemplateNameE.exit, label %7

7:                                                ; preds = %5
  %8 = load ptr, ptr %4, align 8
  %9 = getelementptr inbounds i8, ptr %8, i64 32
  %10 = load ptr, ptr %9, align 8
  %11 = call noundef ptr %10(ptr noundef nonnull align 8 dereferenceable(33) %4) #24
  %12 = ptrtoint ptr %11 to i64
  br label %_ZN12_GLOBAL__N_114CXXNameMangler18mangleSubstitutionEN5clang12TemplateNameE.exit.sink.split

13:                                               ; preds = %2
  %14 = load ptr, ptr %0, align 8
  %15 = getelementptr inbounds nuw i8, ptr %14, i64 8
  %16 = load ptr, ptr %15, align 8
  %17 = call i64 @_ZNK5clang10ASTContext24getCanonicalTemplateNameERKNS_12TemplateNameE(ptr noundef nonnull align 8 dereferenceable(23096) %16, ptr noundef nonnull align 8 dereferenceable(8) %3) #24
  store i64 %17, ptr %3, align 8
  br label %_ZN12_GLOBAL__N_114CXXNameMangler18mangleSubstitutionEN5clang12TemplateNameE.exit.sink.split

_ZN12_GLOBAL__N_114CXXNameMangler18mangleSubstitutionEN5clang12TemplateNameE.exit.sink.split: ; preds = %13, %7
  %.sink = phi i64 [ %12, %7 ], [ %17, %13 ]
  %18 = call fastcc noundef zeroext i1 @_ZN12_GLOBAL__N_114CXXNameMangler18mangleSubstitutionEm(ptr noundef nonnull readonly align 8 dereferenceable(280) %0, i64 noundef %.sink)
  br label %_ZN12_GLOBAL__N_114CXXNameMangler18mangleSubstitutionEN5clang12TemplateNameE.exit

_ZN12_GLOBAL__N_114CXXNameMangler18mangleSubstitutionEN5clang12TemplateNameE.exit: ; preds = %_ZN12_GLOBAL__N_114CXXNameMangler18mangleSubstitutionEN5clang12TemplateNameE.exit.sink.split, %5
  call void @llvm.lifetime.end.p0(i64 8, ptr nonnull %3)
  ret void
}